; Function Attrs: uwtable
define internal void @__cxx_global_array_dtor(ptr readnone captures(none) %0) #9 section ".text.startup" personality ptr @__gxx_personality_v0 {
  br label %2

2:                                                ; preds = %_ZNSt10unique_ptrIN6google14LogDestinationESt14default_deleteIS1_EED2Ev.exit, %1
  %3 = phi ptr [ getelementptr inbounds nuw (i8, ptr @_ZN6google14LogDestination17log_destinations_E, i64 32), %1 ], [ %4, %_ZNSt10unique_ptrIN6google14LogDestinationESt14default_deleteIS1_EED2Ev.exit ]
  %4 = getelementptr inbounds i8, ptr %3, i64 -8
  %5 = load ptr, ptr %4, align 8, !tbaa !80
  %.not.i = icmp eq ptr %5, null
  br i1 %.not.i, label %_ZNSt10unique_ptrIN6google14LogDestinationESt14default_deleteIS1_EED2Ev.exit, label %6

6:                                                ; preds = %2
  %7 = getelementptr inbounds nuw i8, ptr %5, i64 200
  %8 = load ptr, ptr %7, align 8, !tbaa !76
  %9 = icmp eq ptr %8, %5
  br i1 %9, label %_ZNKSt14default_deleteIN6google14LogDestinationEEclEPS1_.exit.i, label %10

10:                                               ; preds = %6
  %.not.i.i.i.i.i = icmp eq ptr %8, null
  br i1 %.not.i.i.i.i.i, label %15, label %11

11:                                               ; preds = %10
  %12 = load ptr, ptr %8, align 8, !tbaa !3
  %13 = getelementptr inbounds nuw i8, ptr %12, i64 8
  %14 = load ptr, ptr %13, align 8
  tail call void %14(ptr noundef nonnull align 8 dereferenceable(8) %8) #49
  br label %15

15:                                               ; preds = %11, %10
  store ptr %5, ptr %7, align 8, !tbaa !76
  br label %_ZNKSt14default_deleteIN6google14LogDestinationEEclEPS1_.exit.i

_ZNKSt14default_deleteIN6google14LogDestinationEEclEPS1_.exit.i: ; preds = %15, %6
  tail call void @_ZN6google12_GLOBAL__N_113LogFileObjectD2Ev(ptr noundef nonnull align 8 dereferenceable(208) %5) #49
  tail call void @_ZdlPvm(ptr noundef nonnull %5, i64 noundef 208) #51
  br label %_ZNSt10unique_ptrIN6google14LogDestinationESt14default_deleteIS1_EED2Ev.exit

_ZNSt10unique_ptrIN6google14LogDestinationESt14default_deleteIS1_EED2Ev.exit: ; preds = %2, %_ZNKSt14default_deleteIN6google14LogDestinationEEclEPS1_.exit.i
  store ptr null, ptr %4, align 8, !tbaa !80
  %16 = icmp eq ptr %4, @_ZN6google14LogDestination17log_destinations_E
  br i1 %16, label %17, label %2

17:                                               ; preds = %_ZNSt10unique_ptrIN6google14LogDestinationESt14default_deleteIS1_EED2Ev.exit
  ret void
}